target datalayout = "e-m:e-p270:32:32-p271:32:32-p272:64:64-i64:64-i128:128-f80:128-n8:16:32:64-S128"
target triple = "x86_64-pc-linux-gnu"

%"class.std::ios_base" = type { ptr, i64, i64, i32, i32, i32, ptr, %"struct.std::ios_base::_Words", [8 x %"struct.std::ios_base::_Words"], i32, ptr, %"class.std::locale" }
%"struct.std::ios_base::_Words" = type { ptr, i64 }
%"class.std::locale" = type { ptr }

@.str.184 = private unnamed_addr constant [2 x i8] c"\22\00", align 1
@.str.532 = private unnamed_addr constant [3 x i8] c"\22 \00", align 1
@.str.534 = private unnamed_addr constant [2 x i8] c"u\00", align 1

; Function Attrs: inlinehint mustprogress nounwind uwtable
define linkonce_odr noundef i32 @_ZStorSt12_Ios_IostateS_(i32 noundef %0, i32 noundef %1) #5 comdat {
  %3 = alloca i32, align 4
  %4 = alloca i32, align 4
  store i32 %0, ptr %3, align 4, !tbaa !1466
  store i32 %1, ptr %4, align 4, !tbaa !1466
  %5 = load i32, ptr %3, align 4, !tbaa !1466
  %6 = load i32, ptr %4, align 4, !tbaa !1466
  %7 = or i32 %5, %6
  ret i32 %7
}

; Function Attrs: mustprogress nounwind uwtable
define available_externally noundef i32 @_ZNKSt9basic_iosIcSt11char_traitsIcEE7rdstateEv(ptr noundef nonnull align 8 dereferenceable(264) %0) #7 align 2 {
  %2 = alloca ptr, align 8
  store ptr %0, ptr %2, align 8, !tbaa !1464
  %3 = load ptr, ptr %2, align 8
  %4 = getelementptr inbounds nuw %"class.std::ios_base", ptr %3, i32 0, i32 5
  %5 = load i32, ptr %4, align 8, !tbaa !1467
  ret i32 %5
}

; Function Attrs: mustprogress nounwind uwtable
define internal noundef zeroext i32 @_ZN7testing12_GLOBAL__N_18ToChar32IDsEEDiT_(i16 noundef zeroext %0) #7 {
  %2 = alloca i16, align 2
  store i16 %0, ptr %2, align 2, !tbaa !356
  %3 = load i16, ptr %2, align 2, !tbaa !356
  %4 = zext i16 %3 to i32
  ret i32 %4
}

; Function Attrs: mustprogress nounwind uwtable
define linkonce_odr noundef i64 @_ZNSt11char_traitsIcE6lengthEPKc(ptr noundef %0) #7 comdat align 2 {
  %2 = alloca ptr, align 8
  store ptr %0, ptr %2, align 8, !tbaa !31
  %3 = load ptr, ptr %2, align 8, !tbaa !31
  %4 = call i64 @strlen(ptr noundef %3) #3
  ret i64 %4
}

; Function Attrs: mustprogress uwtable
define available_externally void @_ZNSt9basic_iosIcSt11char_traitsIcEE8setstateESt12_Ios_Iostate(ptr noundef nonnull align 8 dereferenceable(264) %0, i32 noundef %1) #4 align 2 {
  %3 = alloca ptr, align 8
  %4 = alloca i32, align 4
  store ptr %0, ptr %3, align 8, !tbaa !1464
  store i32 %1, ptr %4, align 4, !tbaa !1466
  %5 = load ptr, ptr %3, align 8
  %6 = call noundef i32 @_ZNKSt9basic_iosIcSt11char_traitsIcEE7rdstateEv(ptr noundef nonnull align 8 dereferenceable(264) %5)
  %7 = load i32, ptr %4, align 4, !tbaa !1466
  %8 = call noundef i32 @_ZStorSt12_Ios_IostateS_(i32 noundef %6, i32 noundef %7)
  call void @_ZNSt9basic_iosIcSt11char_traitsIcEE5clearESt12_Ios_Iostate(ptr noundef nonnull align 8 dereferenceable(264) %5, i32 noundef %8)
  ret void
}

; Function Attrs: mustprogress uwtable
define internal noundef i32 @_ZN7testing8internalL22PrintAsStringLiteralToEDsPSo(i16 noundef zeroext %0, ptr noundef %1) #4 {
  %3 = alloca i16, align 2
  %4 = alloca ptr, align 8
  store i16 %0, ptr %3, align 2, !tbaa !356
  store ptr %1, ptr %4, align 8, !tbaa !177
  %5 = load i16, ptr %3, align 2, !tbaa !356
  %6 = call noundef zeroext i32 @_ZN7testing12_GLOBAL__N_18ToChar32IDsEEDiT_(i16 noundef zeroext %5)
  %7 = load ptr, ptr %4, align 8, !tbaa !177
  %8 = call noundef i32 @_ZN7testing8internalL22PrintAsStringLiteralToEDiPSo(i32 noundef zeroext %6, ptr noundef %7)
  ret i32 %8
}

; Function Attrs: inlinehint mustprogress nounwind uwtable
define linkonce_odr noundef zeroext i1 @_ZN7testing8internal8IsXDigitEDs(i16 noundef zeroext %0) #5 comdat {
  %2 = alloca i16, align 2
  %3 = alloca i8, align 1
  store i16 %0, ptr %2, align 2, !tbaa !356
  call void @llvm.lifetime.start.p0(i64 1, ptr %3) #3
  %4 = load i16, ptr %2, align 2, !tbaa !356
  %5 = trunc i16 %4 to i8
  store i8 %5, ptr %3, align 1, !tbaa !162
  %6 = load i16, ptr %2, align 2, !tbaa !356
  %7 = zext i16 %6 to i32
  %8 = load i8, ptr %3, align 1, !tbaa !162
  %9 = zext i8 %8 to i32
  %10 = icmp eq i32 %7, %9
  br i1 %10, label %11, label %16

11:                                               ; preds = %1
  %12 = load i8, ptr %3, align 1, !tbaa !162
  %13 = zext i8 %12 to i32
  %14 = call i32 @isxdigit(i32 noundef %13) #28
  %15 = icmp ne i32 %14, 0
  br label %16

16:                                               ; preds = %11, %1
  %17 = phi i1 [ false, %1 ], [ %15, %11 ]
  call void @llvm.lifetime.end.p0(i64 1, ptr %3) #3
  ret i1 %17
}

; Function Attrs: inlinehint mustprogress uwtable
define available_externally noundef nonnull align 8 dereferenceable(8) ptr @_ZStlsISt11char_traitsIcEERSt13basic_ostreamIcT_ES5_PKc(ptr noundef nonnull align 8 dereferenceable(8) %0, ptr noundef %1) #11 {
  %3 = alloca ptr, align 8
  %4 = alloca ptr, align 8
  store ptr %0, ptr %3, align 8, !tbaa !177
  store ptr %1, ptr %4, align 8, !tbaa !31
  %5 = load ptr, ptr %4, align 8, !tbaa !31
  %6 = icmp ne ptr %5, null
  br i1 %6, label %13, label %7

7:                                                ; preds = %2
  %8 = load ptr, ptr %3, align 8, !tbaa !177
  %9 = load ptr, ptr %8, align 8, !tbaa !49
  %10 = getelementptr i8, ptr %9, i64 -24
  %11 = load i64, ptr %10, align 8
  %12 = getelementptr inbounds i8, ptr %8, i64 %11
  call void @_ZNSt9basic_iosIcSt11char_traitsIcEE8setstateESt12_Ios_Iostate(ptr noundef nonnull align 8 dereferenceable(264) %12, i32 noundef 1)
  br label %19

13:                                               ; preds = %2
  %14 = load ptr, ptr %3, align 8, !tbaa !177
  %15 = load ptr, ptr %4, align 8, !tbaa !31
  %16 = load ptr, ptr %4, align 8, !tbaa !31
  %17 = call noundef i64 @_ZNSt11char_traitsIcE6lengthEPKc(ptr noundef %16)
  %18 = call noundef nonnull align 8 dereferenceable(8) ptr @_ZSt16__ostream_insertIcSt11char_traitsIcEERSt13basic_ostreamIT_T0_ES6_PKS3_l(ptr noundef nonnull align 8 dereferenceable(8) %14, ptr noundef %15, i64 noundef %17)
  br label %19

19:                                               ; preds = %13, %7
  %20 = load ptr, ptr %3, align 8, !tbaa !177
  ret ptr %20
}

; Function Attrs: mustprogress nounwind uwtable
define internal noundef ptr @_ZN7testing8internalL18GetCharWidthPrefixEDs(i16 noundef zeroext %0) #7 {
  %2 = alloca i16, align 2
  store i16 %0, ptr %2, align 2, !tbaa !356
  ret ptr @.str.534
}

; Function Attrs: mustprogress uwtable
define internal noundef i32 @_ZN7testing8internalL20PrintCharsAsStringToIDsEENS0_10CharFormatEPKT_mPSo(ptr noundef %0, i64 noundef %1, ptr noundef %2) #4 {
  %4 = alloca ptr, align 8
  %5 = alloca i64, align 8
  %6 = alloca ptr, align 8
  %7 = alloca ptr, align 8
  %8 = alloca i8, align 1
  %9 = alloca i32, align 4
  %10 = alloca i64, align 8
  %11 = alloca i16, align 2
  store ptr %0, ptr %4, align 8, !tbaa !354
  store i64 %1, ptr %5, align 8, !tbaa !181
  store ptr %2, ptr %6, align 8, !tbaa !177
  call void @llvm.lifetime.start.p0(i64 8, ptr %7) #3
  %12 = load ptr, ptr %4, align 8, !tbaa !354
  %13 = load i16, ptr %12, align 2, !tbaa !356
  %14 = call noundef ptr @_ZN7testing8internalL18GetCharWidthPrefixEDs(i16 noundef zeroext %13)
  store ptr %14, ptr %7, align 8, !tbaa !31
  %15 = load ptr, ptr %6, align 8, !tbaa !177
  %16 = load ptr, ptr %7, align 8, !tbaa !31
  %17 = call noundef nonnull align 8 dereferenceable(8) ptr @_ZStlsISt11char_traitsIcEERSt13basic_ostreamIcT_ES5_PKc(ptr noundef nonnull align 8 dereferenceable(8) %15, ptr noundef %16)
  %18 = call noundef nonnull align 8 dereferenceable(8) ptr @_ZStlsISt11char_traitsIcEERSt13basic_ostreamIcT_ES5_PKc(ptr noundef nonnull align 8 dereferenceable(8) %17, ptr noundef @.str.184)
  call void @llvm.lifetime.start.p0(i64 1, ptr %8) #3
  store i8 0, ptr %8, align 1, !tbaa !27
  call void @llvm.lifetime.start.p0(i64 4, ptr %9) #3
  store i32 0, ptr %9, align 4, !tbaa !339
  call void @llvm.lifetime.start.p0(i64 8, ptr %10) #3
  store i64 0, ptr %10, align 8, !tbaa !181
  br label %19

19:                                               ; preds = %50, %3
  %20 = load i64, ptr %10, align 8, !tbaa !181
  %21 = load i64, ptr %5, align 8, !tbaa !181
  %22 = icmp ult i64 %20, %21
  br i1 %22, label %24, label %23

23:                                               ; preds = %19
  call void @llvm.lifetime.end.p0(i64 8, ptr %10) #3
  br label %53

24:                                               ; preds = %19
  call void @llvm.lifetime.start.p0(i64 2, ptr %11) #3
  %25 = load ptr, ptr %4, align 8, !tbaa !354
  %26 = load i64, ptr %10, align 8, !tbaa !181
  %27 = getelementptr inbounds nuw i16, ptr %25, i64 %26
  %28 = load i16, ptr %27, align 2, !tbaa !356
  store i16 %28, ptr %11, align 2, !tbaa !356
  %29 = load i8, ptr %8, align 1, !tbaa !27, !range !18, !noundef !19
  %30 = trunc i8 %29 to i1
  br i1 %30, label %31, label %40

31:                                               ; preds = %24
  %32 = load i16, ptr %11, align 2, !tbaa !356
  %33 = call noundef zeroext i1 @_ZN7testing8internal8IsXDigitEDs(i16 noundef zeroext %32)
  br i1 %33, label %34, label %40

34:                                               ; preds = %31
  %35 = load ptr, ptr %6, align 8, !tbaa !177
  %36 = call noundef nonnull align 8 dereferenceable(8) ptr @_ZStlsISt11char_traitsIcEERSt13basic_ostreamIcT_ES5_PKc(ptr noundef nonnull align 8 dereferenceable(8) %35, ptr noundef @.str.532)
  %37 = load ptr, ptr %7, align 8, !tbaa !31
  %38 = call noundef nonnull align 8 dereferenceable(8) ptr @_ZStlsISt11char_traitsIcEERSt13basic_ostreamIcT_ES5_PKc(ptr noundef nonnull align 8 dereferenceable(8) %36, ptr noundef %37)
  %39 = call noundef nonnull align 8 dereferenceable(8) ptr @_ZStlsISt11char_traitsIcEERSt13basic_ostreamIcT_ES5_PKc(ptr noundef nonnull align 8 dereferenceable(8) %38, ptr noundef @.str.184)
  br label %40

40:                                               ; preds = %34, %31, %24
  %41 = load i16, ptr %11, align 2, !tbaa !356
  %42 = load ptr, ptr %6, align 8, !tbaa !177
  %43 = call noundef i32 @_ZN7testing8internalL22PrintAsStringLiteralToEDsPSo(i16 noundef zeroext %41, ptr noundef %42)
  %44 = icmp eq i32 %43, 1
  %45 = zext i1 %44 to i8
  store i8 %45, ptr %8, align 1, !tbaa !27
  %46 = load i8, ptr %8, align 1, !tbaa !27, !range !18, !noundef !19
  %47 = trunc i8 %46 to i1
  br i1 %47, label %48, label %49

48:                                               ; preds = %40
  store i32 1, ptr %9, align 4, !tbaa !339
  br label %49

49:                                               ; preds = %48, %40
  call void @llvm.lifetime.end.p0(i64 2, ptr %11) #3
  br label %50

50:                                               ; preds = %49
  %51 = load i64, ptr %10, align 8, !tbaa !181
  %52 = add i64 %51, 1
  store i64 %52, ptr %10, align 8, !tbaa !181
  br label %19, !llvm.loop !365

53:                                               ; preds = %23
  %54 = load ptr, ptr %6, align 8, !tbaa !177
  %55 = call noundef nonnull align 8 dereferenceable(8) ptr @_ZStlsISt11char_traitsIcEERSt13basic_ostreamIcT_ES5_PKc(ptr noundef nonnull align 8 dereferenceable(8) %54, ptr noundef @.str.184)
  %56 = load i32, ptr %9, align 4, !tbaa !339
  call void @llvm.lifetime.end.p0(i64 4, ptr %9) #3
  call void @llvm.lifetime.end.p0(i64 1, ptr %8) #3
  call void @llvm.lifetime.end.p0(i64 8, ptr %7) #3
  ret i32 %56
}