; Function Attrs: mustprogress uwtable
define internal fastcc void @_ZN7testing8internalL20PrintCharsAsStringToIDsEENS0_10CharFormatEPKT_mPSo(ptr noundef readonly captures(none) %0, i64 noundef %1, ptr noundef nonnull %2) unnamed_addr #3 {
  %4 = tail call noundef nonnull align 8 dereferenceable(8) ptr @_ZSt16__ostream_insertIcSt11char_traitsIcEERSt13basic_ostreamIT_T0_ES6_PKS3_l(ptr noundef nonnull align 8 dereferenceable(8) %2, ptr noundef nonnull @.str.534, i64 noundef 1)
  %5 = tail call noundef nonnull align 8 dereferenceable(8) ptr @_ZSt16__ostream_insertIcSt11char_traitsIcEERSt13basic_ostreamIT_T0_ES6_PKS3_l(ptr noundef nonnull align 8 dereferenceable(8) %2, ptr noundef nonnull @.str.184, i64 noundef 1)
  %.not21 = icmp eq i64 %1, 0
  br i1 %.not21, label %._crit_edge, label %.lr.ph

._crit_edge:                                      ; preds = %_ZN7testing8internal8IsXDigitEDs.exit.thread, %3
  %6 = tail call noundef nonnull align 8 dereferenceable(8) ptr @_ZSt16__ostream_insertIcSt11char_traitsIcEERSt13basic_ostreamIT_T0_ES6_PKS3_l(ptr noundef nonnull align 8 dereferenceable(8) %2, ptr noundef nonnull @.str.184, i64 noundef 1)
  ret void

.lr.ph:                                           ; preds = %3, %_ZN7testing8internal8IsXDigitEDs.exit.thread
  %.020 = phi i1 [ %17, %_ZN7testing8internal8IsXDigitEDs.exit.thread ], [ false, %3 ]
  %.01619 = phi i64 [ %18, %_ZN7testing8internal8IsXDigitEDs.exit.thread ], [ 0, %3 ]
  %.01718 = phi i32 [ %spec.select, %_ZN7testing8internal8IsXDigitEDs.exit.thread ], [ 0, %3 ]
  %7 = getelementptr inbounds nuw i16, ptr %0, i64 %.01619
  %8 = load i16, ptr %7, align 2, !tbaa !573
  %9 = icmp ult i16 %8, 256
  %or.cond = select i1 %.020, i1 %9, i1 false
  %10 = zext i16 %8 to i32
  br i1 %or.cond, label %_ZN7testing8internal8IsXDigitEDs.exit, label %_ZN7testing8internal8IsXDigitEDs.exit.thread

_ZN7testing8internal8IsXDigitEDs.exit:            ; preds = %.lr.ph
  %11 = tail call i32 @isxdigit(i32 noundef %10) #63
  %.not = icmp eq i32 %11, 0
  br i1 %.not, label %_ZN7testing8internal8IsXDigitEDs.exit.thread, label %12

12:                                               ; preds = %_ZN7testing8internal8IsXDigitEDs.exit
  %13 = tail call noundef nonnull align 8 dereferenceable(8) ptr @_ZSt16__ostream_insertIcSt11char_traitsIcEERSt13basic_ostreamIT_T0_ES6_PKS3_l(ptr noundef nonnull align 8 dereferenceable(8) %2, ptr noundef nonnull @.str.532, i64 noundef 2)
  %14 = tail call noundef nonnull align 8 dereferenceable(8) ptr @_ZSt16__ostream_insertIcSt11char_traitsIcEERSt13basic_ostreamIT_T0_ES6_PKS3_l(ptr noundef nonnull align 8 dereferenceable(8) %2, ptr noundef nonnull @.str.534, i64 noundef 1)
  %15 = tail call noundef nonnull align 8 dereferenceable(8) ptr @_ZSt16__ostream_insertIcSt11char_traitsIcEERSt13basic_ostreamIT_T0_ES6_PKS3_l(ptr noundef nonnull align 8 dereferenceable(8) %2, ptr noundef nonnull @.str.184, i64 noundef 1)
  br label %_ZN7testing8internal8IsXDigitEDs.exit.thread

_ZN7testing8internal8IsXDigitEDs.exit.thread:     ; preds = %.lr.ph, %12, %_ZN7testing8internal8IsXDigitEDs.exit
  %16 = tail call fastcc noundef range(i32 0, 3) i32 @_ZN7testing8internalL22PrintAsStringLiteralToEDiPSo(i32 noundef zeroext %10, ptr noundef nonnull %2)
  %17 = icmp eq i32 %16, 1
  %spec.select = select i1 %17, i32 1, i32 %.01718
  %18 = add nuw i64 %.01619, 1
  %exitcond.not = icmp eq i64 %18, %1
  br i1 %exitcond.not, label %._crit_edge, label %.lr.ph, !llvm.loop !589
}